; Function Attrs: nounwind uwtable
define void @dt_interpolation_resample_roi(ptr noundef readonly captures(none) %0, ptr noundef %1, ptr noundef readonly captures(none) %2, ptr noundef readonly captures(none) %3, ptr noundef readonly captures(none) %4) local_unnamed_addr #0 {
  %6 = alloca %struct.dt_iop_roi_t, align 4
  %7 = alloca %struct.dt_iop_roi_t, align 4
  call void @llvm.lifetime.start.p0(i64 20, ptr nonnull %6) #13
  call void @llvm.memcpy.p0.p0.i64(ptr noundef nonnull align 4 dereferenceable(20) %6, ptr noundef nonnull align 4 dereferenceable(20) %2, i64 20, i1 false), !tbaa.struct !91
  %8 = getelementptr inbounds nuw i8, ptr %6, i64 4
  store i32 0, ptr %8, align 4, !tbaa !80
  store i32 0, ptr %6, align 4, !tbaa !79
  call void @llvm.lifetime.start.p0(i64 20, ptr nonnull %7) #13
  call void @llvm.memcpy.p0.p0.i64(ptr noundef nonnull align 4 dereferenceable(20) %7, ptr noundef nonnull align 4 dereferenceable(20) %4, i64 20, i1 false), !tbaa.struct !91
  %9 = getelementptr inbounds nuw i8, ptr %7, i64 4
  store i32 0, ptr %9, align 4, !tbaa !80
  store i32 0, ptr %7, align 4, !tbaa !79
  call void @dt_interpolation_resample(ptr noundef %0, ptr noundef %1, ptr noundef nonnull %6, ptr noundef %3, ptr noundef nonnull %7)
  call void @llvm.lifetime.end.p0(i64 20, ptr nonnull %7) #13
  call void @llvm.lifetime.end.p0(i64 20, ptr nonnull %6) #13
  ret void
}